; ModuleID = '37/1544.c'
source_filename = "37/1544.c"
target datalayout = "e-m:e-p270:32:32-p271:32:32-p272:64:64-i64:64-f80:128-n8:16:32:64-S128"
target triple = "x86_64-pc-linux-gnu"

@.str = private unnamed_addr constant [3 x i8] c"%d\00", align 1
@.str.1 = private unnamed_addr constant [3 x i8] c"%s\00", align 1
@.str.2 = private unnamed_addr constant [4 x i8] c"%c\0A\00", align 1
@.str.3 = private unnamed_addr constant [4 x i8] c"no\0A\00", align 1

; Function Attrs: noinline nounwind uwtable
define dso_local i32 @main() #0 {
  %1 = alloca i32, align 4
  %2 = alloca i32, align 4
  %3 = alloca i32, align 4
  %4 = alloca i32, align 4
  %5 = alloca i32, align 4
  %6 = alloca i32, align 4
  %7 = alloca i32, align 4
  %8 = alloca i32, align 4
  %9 = alloca i32, align 4
  %10 = alloca [100000 x i8], align 16
  %11 = alloca [26 x i8], align 16
  store i32 0, i32* %1, align 4
  store i32 1, i32* %9, align 4
  %12 = call i32 (i8*, ...) @__isoc99_scanf(i8* getelementptr inbounds ([3 x i8], [3 x i8]* @.str, i64 0, i64 0), i32* %4)
  store i32 0, i32* %2, align 4
  br label %13

13:                                               ; preds = %134, %0
  %14 = load i32, i32* %2, align 4
  %15 = load i32, i32* %4, align 4
  %16 = icmp slt i32 %14, %15
  br i1 %16, label %17, label %137

17:                                               ; preds = %13
  store i32 1, i32* %9, align 4
  store i32 0, i32* %3, align 4
  br label %18

18:                                               ; preds = %25, %17
  %19 = load i32, i32* %3, align 4
  %20 = icmp slt i32 %19, 26
  br i1 %20, label %21, label %28

21:                                               ; preds = %18
  %22 = load i32, i32* %3, align 4
  %23 = sext i32 %22 to i64
  %24 = getelementptr inbounds [26 x i8], [26 x i8]* %11, i64 0, i64 %23
  store i8 32, i8* %24, align 1
  br label %25

25:                                               ; preds = %21
  %26 = load i32, i32* %3, align 4
  %27 = add nsw i32 %26, 1
  store i32 %27, i32* %3, align 4
  br label %18

28:                                               ; preds = %18
  %29 = getelementptr inbounds [100000 x i8], [100000 x i8]* %10, i64 0, i64 0
  %30 = call i32 (i8*, ...) @__isoc99_scanf(i8* getelementptr inbounds ([3 x i8], [3 x i8]* @.str.1, i64 0, i64 0), i8* %29)
  %31 = getelementptr inbounds [100000 x i8], [100000 x i8]* %10, i64 0, i64 0
  %32 = call i64 @strlen(i8* %31) #3
  %33 = trunc i64 %32 to i32
  store i32 %33, i32* %5, align 4
  store i32 0, i32* %7, align 4
  store i32 0, i32* %3, align 4
  br label %34

34:                                               ; preds = %102, %28
  %35 = load i32, i32* %3, align 4
  %36 = load i32, i32* %5, align 4
  %37 = icmp slt i32 %35, %36
  br i1 %37, label %38, label %105

38:                                               ; preds = %34
  store i32 0, i32* %6, align 4
  br label %39

39:                                               ; preds = %98, %38
  %40 = load i32, i32* %6, align 4
  %41 = icmp slt i32 %40, 26
  br i1 %41, label %42, label %101

42:                                               ; preds = %39
  %43 = load i32, i32* %3, align 4
  %44 = sext i32 %43 to i64
  %45 = getelementptr inbounds [100000 x i8], [100000 x i8]* %10, i64 0, i64 %44
  %46 = load i8, i8* %45, align 1
  %47 = sext i8 %46 to i32
  %48 = load i32, i32* %6, align 4
  %49 = sext i32 %48 to i64
  %50 = getelementptr inbounds [26 x i8], [26 x i8]* %11, i64 0, i64 %49
  %51 = load i8, i8* %50, align 1
  %52 = sext i8 %51 to i32
  %53 = icmp eq i32 %47, %52
  br i1 %53, label %54, label %83

54:                                               ; preds = %42
  %55 = load i32, i32* %3, align 4
  %56 = sext i32 %55 to i64
  %57 = getelementptr inbounds [100000 x i8], [100000 x i8]* %10, i64 0, i64 %56
  store i8 32, i8* %57, align 1
  store i32 0, i32* %8, align 4
  br label %58

58:                                               ; preds = %79, %54
  %59 = load i32, i32* %8, align 4
  %60 = load i32, i32* %5, align 4
  %61 = icmp slt i32 %59, %60
  br i1 %61, label %62, label %82

62:                                               ; preds = %58
  %63 = load i32, i32* %8, align 4
  %64 = sext i32 %63 to i64
  %65 = getelementptr inbounds [100000 x i8], [100000 x i8]* %10, i64 0, i64 %64
  %66 = load i8, i8* %65, align 1
  %67 = sext i8 %66 to i32
  %68 = load i32, i32* %6, align 4
  %69 = sext i32 %68 to i64
  %70 = getelementptr inbounds [26 x i8], [26 x i8]* %11, i64 0, i64 %69
  %71 = load i8, i8* %70, align 1
  %72 = sext i8 %71 to i32
  %73 = icmp eq i32 %67, %72
  br i1 %73, label %74, label %78

74:                                               ; preds = %62
  %75 = load i32, i32* %8, align 4
  %76 = sext i32 %75 to i64
  %77 = getelementptr inbounds [100000 x i8], [100000 x i8]* %10, i64 0, i64 %76
  store i8 32, i8* %77, align 1
  br label %78

78:                                               ; preds = %74, %62
  br label %79

79:                                               ; preds = %78
  %80 = load i32, i32* %8, align 4
  %81 = add nsw i32 %80, 1
  store i32 %81, i32* %8, align 4
  br label %58

82:                                               ; preds = %58
  br label %101

83:                                               ; preds = %42
  %84 = load i32, i32* %6, align 4
  %85 = icmp eq i32 %84, 25
  br i1 %85, label %86, label %96

86:                                               ; preds = %83
  %87 = load i32, i32* %3, align 4
  %88 = sext i32 %87 to i64
  %89 = getelementptr inbounds [100000 x i8], [100000 x i8]* %10, i64 0, i64 %88
  %90 = load i8, i8* %89, align 1
  %91 = load i32, i32* %7, align 4
  %92 = sext i32 %91 to i64
  %93 = getelementptr inbounds [26 x i8], [26 x i8]* %11, i64 0, i64 %92
  store i8 %90, i8* %93, align 1
  %94 = load i32, i32* %7, align 4
  %95 = add nsw i32 %94, 1
  store i32 %95, i32* %7, align 4
  br label %96

96:                                               ; preds = %86, %83
  br label %97

97:                                               ; preds = %96
  br label %98

98:                                               ; preds = %97
  %99 = load i32, i32* %6, align 4
  %100 = add nsw i32 %99, 1
  store i32 %100, i32* %6, align 4
  br label %39

101:                                              ; preds = %82, %39
  br label %102

102:                                              ; preds = %101
  %103 = load i32, i32* %3, align 4
  %104 = add nsw i32 %103, 1
  store i32 %104, i32* %3, align 4
  br label %34

105:                                              ; preds = %34
  store i32 0, i32* %3, align 4
  br label %106

106:                                              ; preds = %125, %105
  %107 = load i32, i32* %3, align 4
  %108 = load i32, i32* %5, align 4
  %109 = icmp slt i32 %107, %108
  br i1 %109, label %110, label %128

110:                                              ; preds = %106
  %111 = load i32, i32* %3, align 4
  %112 = sext i32 %111 to i64
  %113 = getelementptr inbounds [100000 x i8], [100000 x i8]* %10, i64 0, i64 %112
  %114 = load i8, i8* %113, align 1
  %115 = sext i8 %114 to i32
  %116 = icmp ne i32 %115, 32
  br i1 %116, label %117, label %124

117:                                              ; preds = %110
  %118 = load i32, i32* %3, align 4
  %119 = sext i32 %118 to i64
  %120 = getelementptr inbounds [100000 x i8], [100000 x i8]* %10, i64 0, i64 %119
  %121 = load i8, i8* %120, align 1
  %122 = sext i8 %121 to i32
  %123 = call i32 (i8*, ...) @printf(i8* getelementptr inbounds ([4 x i8], [4 x i8]* @.str.2, i64 0, i64 0), i32 %122)
  store i32 0, i32* %9, align 4
  br label %128

124:                                              ; preds = %110
  br label %125

125:                                              ; preds = %124
  %126 = load i32, i32* %3, align 4
  %127 = add nsw i32 %126, 1
  store i32 %127, i32* %3, align 4
  br label %106

128:                                              ; preds = %117, %106
  %129 = load i32, i32* %9, align 4
  %130 = icmp eq i32 %129, 1
  br i1 %130, label %131, label %133

131:                                              ; preds = %128
  %132 = call i32 (i8*, ...) @printf(i8* getelementptr inbounds ([4 x i8], [4 x i8]* @.str.3, i64 0, i64 0))
  br label %133

133:                                              ; preds = %131, %128
  br label %134

134:                                              ; preds = %133
  %135 = load i32, i32* %2, align 4
  %136 = add nsw i32 %135, 1
  store i32 %136, i32* %2, align 4
  br label %13

137:                                              ; preds = %13
  ret i32 0
}

declare dso_local i32 @__isoc99_scanf(i8*, ...) #1

; Function Attrs: nounwind readonly
declare dso_local i64 @strlen(i8*) #2

declare dso_local i32 @printf(i8*, ...) #1


!llvm.module.flags = !{!0}
!llvm.ident = !{!1}

!0 = !{i32 1, !"wchar_size", i32 4}
!1 = !{!"clang version 10.0.0-4ubuntu1 "}
